; Function Attrs: nounwind uwtable
define range(i32 -21, 1) i32 @CVodeGetNumStabLimOrderReds(ptr noundef readonly captures(address_is_null) %0, ptr noundef writeonly captures(none) %1) local_unnamed_addr #0 {
  %3 = icmp eq ptr %0, null
  br i1 %3, label %4, label %5

4:                                                ; preds = %2
  tail call void (ptr, i32, ptr, ptr, ptr, ...) @cvProcessError(ptr noundef null, i32 noundef -21, ptr noundef nonnull @.str, ptr noundef nonnull @.str.48, ptr noundef nonnull @.str.2) #6
  br label %13

5:                                                ; preds = %2
  %6 = getelementptr inbounds nuw i8, ptr %0, i64 1848
  %7 = load i32, ptr %6, align 8, !tbaa !29
  %8 = icmp eq i32 %7, 0
  br i1 %8, label %12, label %9

9:                                                ; preds = %5
  %10 = getelementptr inbounds nuw i8, ptr %0, i64 2056
  %11 = load i64, ptr %10, align 8, !tbaa !71
  br label %12

12:                                               ; preds = %5, %9
  %storemerge = phi i64 [ %11, %9 ], [ 0, %5 ]
  store i64 %storemerge, ptr %1, align 8, !tbaa !65
  br label %13

13:                                               ; preds = %12, %4
  %.0 = phi i32 [ -21, %4 ], [ 0, %12 ]
  ret i32 %.0
}